; Function Attrs: mustprogress nofree norecurse nosync nounwind willreturn memory(readwrite, inaccessiblemem: none) uwtable
define hidden void @_ZN9Assembler7evpaddbE11XMMRegister9KRegisterS0_S0_bi(ptr noundef nonnull align 8 dereferenceable(40) %0, i32 %1, i32 %2, i32 %3, i32 %4, i1 noundef zeroext %5, i32 noundef %6) local_unnamed_addr #8 align 2 {
  %8 = alloca %class.InstructionAttr, align 8
  store i8 0, ptr %8, align 8
  %9 = getelementptr inbounds i8, ptr %8, i64 1
  %10 = load i32, ptr @UseAVX, align 4
  %11 = icmp slt i32 %10, 3
  %12 = zext i1 %11 to i8
  store i8 %12, ptr %9, align 1
  %13 = getelementptr inbounds i8, ptr %8, i64 2
  store i8 0, ptr %13, align 2
  %14 = getelementptr inbounds i8, ptr %8, i64 3
  store i8 1, ptr %14, align 1
  %15 = getelementptr inbounds i8, ptr %8, i64 4
  store i8 0, ptr %15, align 4
  %16 = getelementptr inbounds i8, ptr %8, i64 5
  %17 = getelementptr inbounds i8, ptr %8, i64 6
  store i8 1, ptr %17, align 2
  %18 = getelementptr inbounds i8, ptr %8, i64 7
  store i8 0, ptr %18, align 1
  %19 = getelementptr inbounds i8, ptr %8, i64 8
  store i32 %6, ptr %19, align 8
  %20 = getelementptr inbounds i8, ptr %8, i64 12
  store i32 24, ptr %20, align 4
  %21 = getelementptr inbounds i8, ptr %8, i64 16
  store i32 4, ptr %21, align 8
  %22 = getelementptr inbounds i8, ptr %8, i64 20
  store i32 0, ptr %22, align 4
  %23 = getelementptr inbounds i8, ptr %8, i64 24
  %24 = getelementptr inbounds i8, ptr %8, i64 32
  store ptr null, ptr %24, align 8
  store i8 1, ptr %16, align 1
  %25 = sext i32 %2 to i64
  %26 = getelementptr inbounds %"class.KRegister::KRegisterImpl", ptr getelementptr inbounds (i8, ptr @all_KRegisterImpls, i64 1), i64 %25
  %27 = ptrtoint ptr %26 to i64
  %28 = trunc i64 %27 to i32
  %29 = sub i32 %28, ptrtoint (ptr getelementptr inbounds (i8, ptr @all_KRegisterImpls, i64 1) to i32)
  %30 = and i32 %29, 7
  store i32 %30, ptr %23, align 8
  br i1 %5, label %31, label %32

31:                                               ; preds = %7
  store i8 0, ptr %17, align 2
  br label %32

32:                                               ; preds = %31, %7
  %33 = sext i32 %1 to i64
  %34 = getelementptr inbounds %"class.XMMRegister::XMMRegisterImpl", ptr getelementptr inbounds (i8, ptr @all_XMMRegisterImpls, i64 1), i64 %33
  %35 = ptrtoint ptr %34 to i64
  %36 = trunc i64 %35 to i32
  %37 = sub i32 %36, ptrtoint (ptr getelementptr inbounds (i8, ptr @all_XMMRegisterImpls, i64 1) to i32)
  %38 = sext i32 %3 to i64
  %39 = getelementptr inbounds %"class.XMMRegister::XMMRegisterImpl", ptr getelementptr inbounds (i8, ptr @all_XMMRegisterImpls, i64 1), i64 %38
  %40 = ptrtoint ptr %39 to i64
  %41 = trunc i64 %40 to i32
  %42 = sub i32 %41, ptrtoint (ptr getelementptr inbounds (i8, ptr @all_XMMRegisterImpls, i64 1) to i32)
  %43 = sext i32 %4 to i64
  %44 = getelementptr inbounds %"class.XMMRegister::XMMRegisterImpl", ptr getelementptr inbounds (i8, ptr @all_XMMRegisterImpls, i64 1), i64 %43
  %45 = ptrtoint ptr %44 to i64
  %46 = trunc i64 %45 to i32
  %47 = sub i32 %46, ptrtoint (ptr getelementptr inbounds (i8, ptr @all_XMMRegisterImpls, i64 1) to i32)
  %48 = call noundef i32 @_ZN9Assembler21vex_prefix_and_encodeEiiiNS_13VexSimdPrefixENS_9VexOpcodeEP15InstructionAttrb(ptr noundef nonnull align 8 dereferenceable(40) %0, i32 noundef %37, i32 noundef %42, i32 noundef %47, i32 noundef 1, i32 noundef 1, ptr noundef nonnull %8, i1 noundef zeroext false)
  %49 = getelementptr inbounds i8, ptr %0, i64 8
  %50 = load ptr, ptr %49, align 8
  %51 = trunc nuw nsw i32 %48 to i8
  %.0.i2.i = or disjoint i8 %51, -64
  %52 = getelementptr inbounds i8, ptr %50, i64 16
  %53 = load ptr, ptr %52, align 8
  %54 = getelementptr inbounds i8, ptr %53, i64 1
  store i8 -4, ptr %53, align 1
  %55 = getelementptr inbounds i8, ptr %53, i64 2
  store i8 %.0.i2.i, ptr %54, align 1
  store ptr %55, ptr %52, align 8
  %56 = load ptr, ptr %24, align 8
  %.not.i = icmp eq ptr %56, null
  br i1 %.not.i, label %_ZN15InstructionAttrD2Ev.exit, label %57

57:                                               ; preds = %32
  %58 = getelementptr inbounds i8, ptr %56, i64 32
  store ptr null, ptr %58, align 8
  br label %_ZN15InstructionAttrD2Ev.exit

_ZN15InstructionAttrD2Ev.exit:                    ; preds = %32, %57
  ret void
}